; ModuleID = 'bench/gromacs/original/datamodule.cpp.ll'
source_filename = "bench/gromacs/original/datamodule.cpp.ll"
target datalayout = "e-m:e-p270:32:32-p271:32:32-p272:64:64-i64:64-i128:128-f80:128-n8:16:32:64-S128"
target triple = "x86_64-pc-linux-gnu"

%"class.gmx::AnalysisDataParallelOptions" = type { i32 }

$_ZN3gmx24AnalysisDataModuleSerialD2Ev = comdat any

$_ZN3gmx24AnalysisDataModuleSerialD0Ev = comdat any

$_ZN3gmx24AnalysisDataModuleSerial19frameFinishedSerialEi = comdat any

$_ZN3gmx26AnalysisDataModuleParallelD2Ev = comdat any

$_ZN3gmx26AnalysisDataModuleParallelD0Ev = comdat any

$_ZTSN3gmx19IAnalysisDataModuleE = comdat any

$_ZTIN3gmx19IAnalysisDataModuleE = comdat any

@_ZTVN3gmx24AnalysisDataModuleSerialE = unnamed_addr constant { [12 x ptr] } { [12 x ptr] [ptr null, ptr @_ZTIN3gmx24AnalysisDataModuleSerialE, ptr @_ZN3gmx24AnalysisDataModuleSerialD2Ev, ptr @_ZN3gmx24AnalysisDataModuleSerialD0Ev, ptr @__cxa_pure_virtual, ptr @__cxa_pure_virtual, ptr @_ZN3gmx24AnalysisDataModuleSerial19parallelDataStartedEPNS_20AbstractAnalysisDataERKNS_27AnalysisDataParallelOptionsE, ptr @__cxa_pure_virtual, ptr @__cxa_pure_virtual, ptr @__cxa_pure_virtual, ptr @_ZN3gmx24AnalysisDataModuleSerial19frameFinishedSerialEi, ptr @__cxa_pure_virtual] }, align 8
@_ZTVN10__cxxabiv120__si_class_type_infoE = external global [0 x ptr]
@_ZTSN3gmx24AnalysisDataModuleSerialE = constant [33 x i8] c"N3gmx24AnalysisDataModuleSerialE\00", align 1
@_ZTVN10__cxxabiv117__class_type_infoE = external global [0 x ptr]
@_ZTSN3gmx19IAnalysisDataModuleE = linkonce_odr constant [28 x i8] c"N3gmx19IAnalysisDataModuleE\00", comdat, align 1
@_ZTIN3gmx19IAnalysisDataModuleE = linkonce_odr constant { ptr, ptr } { ptr getelementptr inbounds (ptr, ptr @_ZTVN10__cxxabiv117__class_type_infoE, i64 2), ptr @_ZTSN3gmx19IAnalysisDataModuleE }, comdat, align 8
@_ZTIN3gmx24AnalysisDataModuleSerialE = constant { ptr, ptr, ptr } { ptr getelementptr inbounds (ptr, ptr @_ZTVN10__cxxabiv120__si_class_type_infoE, i64 2), ptr @_ZTSN3gmx24AnalysisDataModuleSerialE, ptr @_ZTIN3gmx19IAnalysisDataModuleE }, align 8
@_ZTVN3gmx26AnalysisDataModuleParallelE = unnamed_addr constant { [12 x ptr] } { [12 x ptr] [ptr null, ptr @_ZTIN3gmx26AnalysisDataModuleParallelE, ptr @_ZN3gmx26AnalysisDataModuleParallelD2Ev, ptr @_ZN3gmx26AnalysisDataModuleParallelD0Ev, ptr @__cxa_pure_virtual, ptr @_ZN3gmx26AnalysisDataModuleParallel11dataStartedEPNS_20AbstractAnalysisDataE, ptr @__cxa_pure_virtual, ptr @__cxa_pure_virtual, ptr @__cxa_pure_virtual, ptr @__cxa_pure_virtual, ptr @__cxa_pure_virtual, ptr @__cxa_pure_virtual] }, align 8
@_ZTSN3gmx26AnalysisDataModuleParallelE = constant [35 x i8] c"N3gmx26AnalysisDataModuleParallelE\00", align 1
@_ZTIN3gmx26AnalysisDataModuleParallelE = constant { ptr, ptr, ptr } { ptr getelementptr inbounds (ptr, ptr @_ZTVN10__cxxabiv120__si_class_type_infoE, i64 2), ptr @_ZTSN3gmx26AnalysisDataModuleParallelE, ptr @_ZTIN3gmx19IAnalysisDataModuleE }, align 8

; Function Attrs: mustprogress nounwind uwtable
define linkonce_odr void @_ZN3gmx24AnalysisDataModuleSerialD2Ev(ptr noundef nonnull align 8 dereferenceable(8) %0) unnamed_addr #0 comdat align 2 {
  ret void
}

; Function Attrs: mustprogress nounwind uwtable
define linkonce_odr void @_ZN3gmx24AnalysisDataModuleSerialD0Ev(ptr noundef nonnull align 8 dereferenceable(8) %0) unnamed_addr #0 comdat align 2 {
  tail call void @llvm.trap() #4
  unreachable
}

declare void @__cxa_pure_virtual() unnamed_addr

; Function Attrs: mustprogress uwtable
define noundef zeroext i1 @_ZN3gmx24AnalysisDataModuleSerial19parallelDataStartedEPNS_20AbstractAnalysisDataERKNS_27AnalysisDataParallelOptionsE(ptr noundef nonnull align 8 dereferenceable(8) %0, ptr noundef %1, ptr nocapture nonnull readnone align 4 %2) unnamed_addr #1 align 2 {
  %4 = load ptr, ptr %0, align 8
  %5 = getelementptr inbounds i8, ptr %4, i64 24
  %6 = load ptr, ptr %5, align 8
  tail call void %6(ptr noundef nonnull align 8 dereferenceable(8) %0, ptr noundef %1)
  ret i1 false
}

; Function Attrs: mustprogress nounwind uwtable
define linkonce_odr void @_ZN3gmx24AnalysisDataModuleSerial19frameFinishedSerialEi(ptr noundef nonnull align 8 dereferenceable(8) %0, i32 noundef %1) unnamed_addr #0 comdat align 2 {
  ret void
}

; Function Attrs: mustprogress nounwind uwtable
define linkonce_odr void @_ZN3gmx26AnalysisDataModuleParallelD2Ev(ptr noundef nonnull align 8 dereferenceable(8) %0) unnamed_addr #0 comdat align 2 {
  ret void
}

; Function Attrs: mustprogress nounwind uwtable
define linkonce_odr void @_ZN3gmx26AnalysisDataModuleParallelD0Ev(ptr noundef nonnull align 8 dereferenceable(8) %0) unnamed_addr #0 comdat align 2 {
  tail call void @llvm.trap() #4
  unreachable
}

; Function Attrs: mustprogress uwtable
define void @_ZN3gmx26AnalysisDataModuleParallel11dataStartedEPNS_20AbstractAnalysisDataE(ptr noundef nonnull align 8 dereferenceable(8) %0, ptr noundef %1) unnamed_addr #1 align 2 {
  %3 = alloca %"class.gmx::AnalysisDataParallelOptions", align 4
  call void @_ZN3gmx27AnalysisDataParallelOptionsC1Ev(ptr noundef nonnull align 4 dereferenceable(4) %3)
  %4 = load ptr, ptr %0, align 8
  %5 = getelementptr inbounds i8, ptr %4, i64 32
  %6 = load ptr, ptr %5, align 8
  %7 = call noundef zeroext i1 %6(ptr noundef nonnull align 8 dereferenceable(8) %0, ptr noundef %1, ptr noundef nonnull align 4 dereferenceable(4) %3)
  ret void
}

declare void @_ZN3gmx27AnalysisDataParallelOptionsC1Ev(ptr noundef nonnull align 4 dereferenceable(4)) unnamed_addr #2

; Function Attrs: cold noreturn nounwind memory(inaccessiblemem: write)
declare void @llvm.trap() #3


!llvm.module.flags = !{!0, !1, !2, !3, !4}

!0 = !{i32 1, !"wchar_size", i32 4}
!1 = !{i32 7, !"openmp", i32 51}
!2 = !{i32 8, !"PIC Level", i32 2}
!3 = !{i32 7, !"uwtable", i32 2}
!4 = !{i32 7, !"frame-pointer", i32 2}
